; Function Attrs: mustprogress uwtable
define internal void @_ZNK19OpenColorIO_v2_5dev12_GLOBAL__N_17GammaOp8getCPUOpEb(ptr dead_on_unwind noalias writable sret(%"class.std::shared_ptr.60") align 8 %0, ptr noundef nonnull readonly align 8 captures(none) dereferenceable(24) %1, i1 noundef zeroext %2) unnamed_addr #0 align 2 personality ptr @__gxx_personality_v0 {
  %4 = alloca %"class.std::shared_ptr.31", align 8
  call void @llvm.lifetime.start.p0(i64 16, ptr nonnull %4) #18
  %5 = getelementptr inbounds nuw i8, ptr %1, i64 8
  %.val = load ptr, ptr %5, align 8, !tbaa !25, !noalias !102
  %6 = getelementptr inbounds nuw i8, ptr %1, i64 16
  %.val3 = load ptr, ptr %6, align 8, !tbaa !11, !noalias !102
  call fastcc void @_ZNK19OpenColorIO_v2_5dev12_GLOBAL__N_17GammaOp9gammaDataEv(ptr dead_on_unwind noalias writable align 8 %4, ptr %.val, ptr %.val3)
  invoke void @_ZN19OpenColorIO_v2_5dev16GetGammaRendererERSt10shared_ptrIKNS_11GammaOpDataEEb(ptr dead_on_unwind writable sret(%"class.std::shared_ptr.60") align 8 %0, ptr noundef nonnull align 8 dereferenceable(16) %4, i1 noundef zeroext %2)
          to label %7 unwind label %31

7:                                                ; preds = %3
  %8 = getelementptr inbounds nuw i8, ptr %4, i64 8
  %9 = load ptr, ptr %8, align 8, !tbaa !11
  %.not.i.i = icmp eq ptr %9, null
  br i1 %.not.i.i, label %_ZNSt12__shared_ptrIKN19OpenColorIO_v2_5dev11GammaOpDataELN9__gnu_cxx12_Lock_policyE2EED2Ev.exit, label %10

10:                                               ; preds = %7
  %11 = getelementptr inbounds nuw i8, ptr %9, i64 8
  %12 = load atomic i64, ptr %11 acquire, align 8
  %13 = icmp eq i64 %12, 4294967297
  %14 = trunc i64 %12 to i32
  br i1 %13, label %15, label %23

15:                                               ; preds = %10
  store i32 0, ptr %11, align 8, !tbaa !16
  %16 = getelementptr inbounds nuw i8, ptr %9, i64 12
  store i32 0, ptr %16, align 4, !tbaa !18
  %17 = load ptr, ptr %9, align 8, !tbaa !19
  %18 = getelementptr inbounds nuw i8, ptr %17, i64 16
  %19 = load ptr, ptr %18, align 8
  call void %19(ptr noundef nonnull align 8 dereferenceable(16) %9) #18
  %20 = load ptr, ptr %9, align 8, !tbaa !19
  %21 = getelementptr inbounds nuw i8, ptr %20, i64 24
  %22 = load ptr, ptr %21, align 8
  call void %22(ptr noundef nonnull align 8 dereferenceable(16) %9) #18
  br label %_ZNSt12__shared_ptrIKN19OpenColorIO_v2_5dev11GammaOpDataELN9__gnu_cxx12_Lock_policyE2EED2Ev.exit

23:                                               ; preds = %10
  %24 = load i8, ptr @__libc_single_threaded, align 1, !tbaa !12
  %.not.i.i.i = icmp eq i8 %24, 0
  br i1 %.not.i.i.i, label %27, label %25

25:                                               ; preds = %23
  %26 = add nsw i32 %14, -1
  store i32 %26, ptr %11, align 4, !tbaa !13
  br label %_ZN9__gnu_cxx27__exchange_and_add_dispatchEPii.exit.i.i.i

27:                                               ; preds = %23
  %28 = atomicrmw volatile add ptr %11, i32 -1 acq_rel, align 4
  br label %_ZN9__gnu_cxx27__exchange_and_add_dispatchEPii.exit.i.i.i

_ZN9__gnu_cxx27__exchange_and_add_dispatchEPii.exit.i.i.i: ; preds = %27, %25
  %.0.i.i.i.i = phi i32 [ %14, %25 ], [ %28, %27 ]
  %29 = icmp eq i32 %.0.i.i.i.i, 1
  br i1 %29, label %30, label %_ZNSt12__shared_ptrIKN19OpenColorIO_v2_5dev11GammaOpDataELN9__gnu_cxx12_Lock_policyE2EED2Ev.exit, !prof !21

30:                                               ; preds = %_ZN9__gnu_cxx27__exchange_and_add_dispatchEPii.exit.i.i.i
  call void @_ZNSt16_Sp_counted_baseILN9__gnu_cxx12_Lock_policyE2EE24_M_release_last_use_coldEv(ptr noundef nonnull align 8 dereferenceable(16) %9) #18
  br label %_ZNSt12__shared_ptrIKN19OpenColorIO_v2_5dev11GammaOpDataELN9__gnu_cxx12_Lock_policyE2EED2Ev.exit

_ZNSt12__shared_ptrIKN19OpenColorIO_v2_5dev11GammaOpDataELN9__gnu_cxx12_Lock_policyE2EED2Ev.exit: ; preds = %7, %15, %_ZN9__gnu_cxx27__exchange_and_add_dispatchEPii.exit.i.i.i, %30
  call void @llvm.lifetime.end.p0(i64 16, ptr nonnull %4) #18
  ret void

31:                                               ; preds = %3
  %32 = landingpad { ptr, i32 }
          cleanup
  call void @_ZNSt12__shared_ptrIKN19OpenColorIO_v2_5dev11GammaOpDataELN9__gnu_cxx12_Lock_policyE2EED2Ev(ptr noundef nonnull align 8 dereferenceable(16) %4) #18
  call void @llvm.lifetime.end.p0(i64 16, ptr nonnull %4) #18
  resume { ptr, i32 } %32
}